; Function Attrs: mustprogress uwtable
define noundef zeroext i1 @_ZNK8facebook5velox6memory14MemoryPoolImpl7abortedEv(ptr nocapture noundef nonnull readonly align 8 dereferenceable(480) %this) unnamed_addr #0 align 2 personality ptr @__gxx_personality_v0 {
entry:
  %parent_ = getelementptr inbounds i8, ptr %this, i64 64
  %0 = load ptr, ptr %parent_, align 8
  %cmp.i.i.not = icmp eq ptr %0, null
  br i1 %cmp.i.i.not, label %if.end, label %if.then

if.then:                                          ; preds = %entry
  %vtable = load ptr, ptr %0, align 8
  %vfn = getelementptr inbounds i8, ptr %vtable, i64 352
  %1 = load ptr, ptr %vfn, align 8
  %call4 = tail call noundef zeroext i1 %1(ptr noundef nonnull align 8 dereferenceable(168) %0)
  br label %return

if.end:                                           ; preds = %entry
  %aborted_ = getelementptr inbounds i8, ptr %this, i64 93
  %2 = load atomic i8, ptr %aborted_ seq_cst, align 1
  %3 = and i8 %2, 1
  %tobool.i.i = icmp ne i8 %3, 0
  br label %return

return:                                           ; preds = %if.end, %if.then
  %retval.0 = phi i1 [ %call4, %if.then ], [ %tobool.i.i, %if.end ]
  ret i1 %retval.0
}